; Function Attrs: null_pointer_is_valid sspstrong uwtable
define internal range(i32 1, -2147483644) i32 @get_knet_pdu_len(ptr readnone captures(none) %0, ptr noundef %1, i32 noundef %2, ptr readnone captures(none) %3) #0 {
  %5 = alloca i32, align 4
  store i32 %2, ptr %5, align 4
  %6 = tail call zeroext i8 @tvb_get_uint8(ptr noundef %1, i32 noundef %2)
  %.not.i = icmp sgt i8 %6, -1
  %spec.select.i = select i1 %.not.i, i32 1, i32 2
  %7 = add i32 %2, 1
  %8 = tail call zeroext i8 @tvb_get_uint8(ptr noundef %1, i32 noundef %7)
  %.not4.i = icmp sgt i8 %8, -1
  %.1.i = select i1 %.not4.i, i32 %spec.select.i, i32 4
  %9 = call fastcc i32 @dissect_content_length_vle(ptr noundef %1, ptr noundef nonnull %5, ptr noundef null)
  %10 = add nuw i32 %.1.i, %9
  ret i32 %10
}